target datalayout = "e-m:e-p270:32:32-p271:32:32-p272:64:64-i64:64-i128:128-f80:128-n8:16:32:64-S128"
target triple = "x86_64-pc-linux-gnu"

%"struct.draco::ShannonEntropyTracker::EntropyData" = type <{ double, i32, i32, i32, [4 x i8] }>

; Function Attrs: mustprogress nounwind uwtable
define linkonce_odr noundef double @_ZSt4log2IiEN9__gnu_cxx11__enable_ifIXsr12__is_integerIT_EE7__valueEdE6__typeES2_(i32 noundef %0) #6 comdat {
  %2 = alloca i32, align 4
  store i32 %0, ptr %2, align 4, !tbaa !8
  %3 = load i32, ptr %2, align 4, !tbaa !8
  %4 = sitofp i32 %3 to double
  %5 = call double @log2(double noundef %4) #3, !tbaa !8
  ret double %5
}

; Function Attrs: mustprogress uwtable
define noundef i64 @_ZN5draco21ShannonEntropyTracker19GetNumberOfDataBitsERKNS0_11EntropyDataE(ptr noundef nonnull align 8 dereferenceable(20) %0) #4 align 2 {
  %2 = alloca i64, align 8
  %3 = alloca ptr, align 8
  store ptr %0, ptr %3, align 8, !tbaa !26
  %4 = load ptr, ptr %3, align 8, !tbaa !26
  %5 = getelementptr inbounds nuw %"struct.draco::ShannonEntropyTracker::EntropyData", ptr %4, i32 0, i32 1
  %6 = load i32, ptr %5, align 8, !tbaa !30
  %7 = icmp slt i32 %6, 2
  br i1 %7, label %8, label %9

8:                                                ; preds = %1
  store i64 0, ptr %2, align 8
  br label %25

9:                                                ; preds = %1
  %10 = load ptr, ptr %3, align 8, !tbaa !26
  %11 = getelementptr inbounds nuw %"struct.draco::ShannonEntropyTracker::EntropyData", ptr %10, i32 0, i32 1
  %12 = load i32, ptr %11, align 8, !tbaa !30
  %13 = sitofp i32 %12 to double
  %14 = load ptr, ptr %3, align 8, !tbaa !26
  %15 = getelementptr inbounds nuw %"struct.draco::ShannonEntropyTracker::EntropyData", ptr %14, i32 0, i32 1
  %16 = load i32, ptr %15, align 8, !tbaa !30
  %17 = call noundef double @_ZSt4log2IiEN9__gnu_cxx11__enable_ifIXsr12__is_integerIT_EE7__valueEdE6__typeES2_(i32 noundef %16)
  %18 = load ptr, ptr %3, align 8, !tbaa !26
  %19 = getelementptr inbounds nuw %"struct.draco::ShannonEntropyTracker::EntropyData", ptr %18, i32 0, i32 0
  %20 = load double, ptr %19, align 8, !tbaa !28
  %21 = fneg double %20
  %22 = call double @llvm.fmuladd.f64(double %13, double %17, double %21)
  %23 = call double @llvm.ceil.f64(double %22)
  %24 = fptosi double %23 to i64
  store i64 %24, ptr %2, align 8
  br label %25

25:                                               ; preds = %9, %8
  %26 = load i64, ptr %2, align 8
  ret i64 %26
}