; Function Attrs: mustprogress nofree nounwind willreturn memory(write, argmem: readwrite) uwtable
define noundef i64 @_ZN5draco21ShannonEntropyTracker19GetNumberOfDataBitsERKNS0_11EntropyDataE(ptr noundef nonnull readonly align 8 captures(none) dereferenceable(20) %0) local_unnamed_addr #10 align 2 {
  %2 = getelementptr inbounds nuw i8, ptr %0, i64 8
  %3 = load i32, ptr %2, align 8, !tbaa !13
  %4 = icmp slt i32 %3, 2
  br i1 %4, label %13, label %5

5:                                                ; preds = %1
  %6 = uitofp nneg i32 %3 to double
  %7 = tail call noundef double @log2(double noundef %6) #20, !tbaa !3
  %8 = load double, ptr %0, align 8, !tbaa !22
  %9 = fneg double %8
  %10 = tail call double @llvm.fmuladd.f64(double %6, double %7, double %9)
  %11 = tail call double @llvm.ceil.f64(double %10)
  %12 = fptosi double %11 to i64
  br label %13

13:                                               ; preds = %1, %5
  %.0 = phi i64 [ %12, %5 ], [ 0, %1 ]
  ret i64 %.0
}